; Function Attrs: nounwind uwtable
define void @pauliZ(ptr noundef readonly byval(%struct.Qureg) align 8 captures(none) %0, i32 noundef %1) local_unnamed_addr #0 {
  tail call void @validateTarget(ptr noundef nonnull byval(%struct.Qureg) align 8 %0, i32 noundef %1, ptr noundef nonnull @__func__.pauliZ) #17
  tail call void @statevec_pauliZ(ptr noundef nonnull byval(%struct.Qureg) align 8 %0, i32 noundef %1) #17
  %3 = load i32, ptr %0, align 8, !tbaa !12
  %.not = icmp eq i32 %3, 0
  br i1 %.not, label %8, label %4

4:                                                ; preds = %2
  %5 = getelementptr inbounds nuw i8, ptr %0, i64 4
  %6 = load i32, ptr %5, align 4, !tbaa !17
  %7 = add nsw i32 %6, %1
  tail call void @statevec_pauliZ(ptr noundef nonnull byval(%struct.Qureg) align 8 %0, i32 noundef %7) #17
  br label %8

8:                                                ; preds = %4, %2
  tail call void @qasm_recordGate(ptr noundef nonnull byval(%struct.Qureg) align 8 %0, i32 noundef 2, i32 noundef %1) #17
  ret void
}